target datalayout = "e-m:e-p270:32:32-p271:32:32-p272:64:64-i64:64-i128:128-f80:128-n8:16:32:64-S128"
target triple = "x86_64-pc-linux-gnu"

%struct.lzma_next_coder_s = type { ptr, i64, i64, ptr, ptr, ptr, ptr, ptr, ptr, ptr }
%struct.lzma_block = type { i32, i32, i32, i64, i64, ptr, [64 x i8], ptr, ptr, ptr, i32, i32, i64, i64, i64, i64, i64, i64, i32, i32, i32, i32, i8, i8, i8, i8, i8, i8, i8, i8 }
%struct.lzma_block_coder = type { i32, %struct.lzma_next_coder_s, ptr, i64, i64, i64, i64, i64, %struct.lzma_check_state, i8 }
%struct.lzma_check_state = type { %union.anon, %union.anon.0 }
%union.anon = type { [8 x i64] }
%union.anon.0 = type { %struct.lzma_sha256_state }
%struct.lzma_sha256_state = type { [8 x i32], i64 }

; Function Attrs: nounwind uwtable
define dso_local i32 @lzma_block_decoder_init(ptr noundef %0, ptr noundef %1, ptr noundef %2) #0 {
  %4 = alloca i32, align 4
  %5 = alloca ptr, align 8
  %6 = alloca ptr, align 8
  %7 = alloca ptr, align 8
  %8 = alloca ptr, align 8
  %9 = alloca i32, align 4
  %10 = alloca %struct.lzma_next_coder_s, align 8
  store ptr %0, ptr %5, align 8, !tbaa !4
  store ptr %1, ptr %6, align 8, !tbaa !9
  store ptr %2, ptr %7, align 8, !tbaa !9
  br label %11

11:                                               ; preds = %3
  %12 = load ptr, ptr %5, align 8, !tbaa !4
  %13 = getelementptr inbounds nuw %struct.lzma_next_coder_s, ptr %12, i32 0, i32 2
  %14 = load i64, ptr %13, align 8, !tbaa !10
  %15 = icmp ne i64 ptrtoint (ptr @lzma_block_decoder_init to i64), %14
  br i1 %15, label %16, label %19

16:                                               ; preds = %11
  %17 = load ptr, ptr %5, align 8, !tbaa !4
  %18 = load ptr, ptr %6, align 8, !tbaa !9
  call void @lzma_next_end(ptr noundef %17, ptr noundef %18)
  br label %19

19:                                               ; preds = %16, %11
  %20 = load ptr, ptr %5, align 8, !tbaa !4
  %21 = getelementptr inbounds nuw %struct.lzma_next_coder_s, ptr %20, i32 0, i32 2
  store i64 ptrtoint (ptr @lzma_block_decoder_init to i64), ptr %21, align 8, !tbaa !10
  br label %22

22:                                               ; preds = %19
  %23 = load ptr, ptr %7, align 8, !tbaa !9
  %24 = call i64 @lzma_block_unpadded_size(ptr noundef %23) #9
  %25 = icmp eq i64 %24, 0
  br i1 %25, label %36, label %26

26:                                               ; preds = %22
  %27 = load ptr, ptr %7, align 8, !tbaa !9
  %28 = getelementptr inbounds nuw %struct.lzma_block, ptr %27, i32 0, i32 4
  %29 = load i64, ptr %28, align 8, !tbaa !13
  %30 = icmp ule i64 %29, 9223372036854775807
  br i1 %30, label %37, label %31

31:                                               ; preds = %26
  %32 = load ptr, ptr %7, align 8, !tbaa !9
  %33 = getelementptr inbounds nuw %struct.lzma_block, ptr %32, i32 0, i32 4
  %34 = load i64, ptr %33, align 8, !tbaa !13
  %35 = icmp eq i64 %34, -1
  br i1 %35, label %37, label %36

36:                                               ; preds = %31, %22
  store i32 11, ptr %4, align 4
  br label %138

37:                                               ; preds = %31, %26
  call void @llvm.lifetime.start.p0(i64 8, ptr %8) #10
  %38 = load ptr, ptr %5, align 8, !tbaa !4
  %39 = getelementptr inbounds nuw %struct.lzma_next_coder_s, ptr %38, i32 0, i32 0
  %40 = load ptr, ptr %39, align 8, !tbaa !16
  store ptr %40, ptr %8, align 8, !tbaa !9
  %41 = load ptr, ptr %8, align 8, !tbaa !9
  %42 = icmp eq ptr %41, null
  br i1 %42, label %43, label %60

43:                                               ; preds = %37
  %44 = load ptr, ptr %6, align 8, !tbaa !9
  %45 = call ptr @lzma_alloc(i64 noundef 248, ptr noundef %44)
  store ptr %45, ptr %8, align 8, !tbaa !9
  %46 = load ptr, ptr %8, align 8, !tbaa !9
  %47 = icmp eq ptr %46, null
  br i1 %47, label %48, label %49

48:                                               ; preds = %43
  store i32 5, ptr %4, align 4
  store i32 1, ptr %9, align 4
  br label %137

49:                                               ; preds = %43
  %50 = load ptr, ptr %8, align 8, !tbaa !9
  %51 = load ptr, ptr %5, align 8, !tbaa !4
  %52 = getelementptr inbounds nuw %struct.lzma_next_coder_s, ptr %51, i32 0, i32 0
  store ptr %50, ptr %52, align 8, !tbaa !16
  %53 = load ptr, ptr %5, align 8, !tbaa !4
  %54 = getelementptr inbounds nuw %struct.lzma_next_coder_s, ptr %53, i32 0, i32 3
  store ptr @block_decode, ptr %54, align 8, !tbaa !17
  %55 = load ptr, ptr %5, align 8, !tbaa !4
  %56 = getelementptr inbounds nuw %struct.lzma_next_coder_s, ptr %55, i32 0, i32 4
  store ptr @block_decoder_end, ptr %56, align 8, !tbaa !18
  %57 = load ptr, ptr %8, align 8, !tbaa !9
  %58 = getelementptr inbounds nuw %struct.lzma_block_coder, ptr %57, i32 0, i32 1
  call void @llvm.memset.p0.i64(ptr align 8 %10, i8 0, i64 80, i1 false)
  %59 = getelementptr inbounds nuw %struct.lzma_next_coder_s, ptr %10, i32 0, i32 1
  store i64 -1, ptr %59, align 8, !tbaa !19
  call void @llvm.memcpy.p0.p0.i64(ptr align 8 %58, ptr align 8 %10, i64 80, i1 false), !tbaa.struct !20
  br label %60

60:                                               ; preds = %49, %37
  %61 = load ptr, ptr %8, align 8, !tbaa !9
  %62 = getelementptr inbounds nuw %struct.lzma_block_coder, ptr %61, i32 0, i32 0
  store i32 0, ptr %62, align 8, !tbaa !22
  %63 = load ptr, ptr %7, align 8, !tbaa !9
  %64 = load ptr, ptr %8, align 8, !tbaa !9
  %65 = getelementptr inbounds nuw %struct.lzma_block_coder, ptr %64, i32 0, i32 2
  store ptr %63, ptr %65, align 8, !tbaa !26
  %66 = load ptr, ptr %8, align 8, !tbaa !9
  %67 = getelementptr inbounds nuw %struct.lzma_block_coder, ptr %66, i32 0, i32 3
  store i64 0, ptr %67, align 8, !tbaa !27
  %68 = load ptr, ptr %8, align 8, !tbaa !9
  %69 = getelementptr inbounds nuw %struct.lzma_block_coder, ptr %68, i32 0, i32 4
  store i64 0, ptr %69, align 8, !tbaa !28
  %70 = load ptr, ptr %7, align 8, !tbaa !9
  %71 = getelementptr inbounds nuw %struct.lzma_block, ptr %70, i32 0, i32 3
  %72 = load i64, ptr %71, align 8, !tbaa !29
  %73 = icmp eq i64 %72, -1
  br i1 %73, label %74, label %86

74:                                               ; preds = %60
  %75 = load ptr, ptr %7, align 8, !tbaa !9
  %76 = getelementptr inbounds nuw %struct.lzma_block, ptr %75, i32 0, i32 1
  %77 = load i32, ptr %76, align 4, !tbaa !30
  %78 = zext i32 %77 to i64
  %79 = sub i64 9223372036854775804, %78
  %80 = load ptr, ptr %7, align 8, !tbaa !9
  %81 = getelementptr inbounds nuw %struct.lzma_block, ptr %80, i32 0, i32 2
  %82 = load i32, ptr %81, align 8, !tbaa !31
  %83 = call i32 @lzma_check_size(i32 noundef %82) #11
  %84 = zext i32 %83 to i64
  %85 = sub i64 %79, %84
  br label %90

86:                                               ; preds = %60
  %87 = load ptr, ptr %7, align 8, !tbaa !9
  %88 = getelementptr inbounds nuw %struct.lzma_block, ptr %87, i32 0, i32 3
  %89 = load i64, ptr %88, align 8, !tbaa !29
  br label %90

90:                                               ; preds = %86, %74
  %91 = phi i64 [ %85, %74 ], [ %89, %86 ]
  %92 = load ptr, ptr %8, align 8, !tbaa !9
  %93 = getelementptr inbounds nuw %struct.lzma_block_coder, ptr %92, i32 0, i32 5
  store i64 %91, ptr %93, align 8, !tbaa !32
  %94 = load ptr, ptr %7, align 8, !tbaa !9
  %95 = getelementptr inbounds nuw %struct.lzma_block, ptr %94, i32 0, i32 4
  %96 = load i64, ptr %95, align 8, !tbaa !13
  %97 = icmp eq i64 %96, -1
  br i1 %97, label %98, label %99

98:                                               ; preds = %90
  br label %103

99:                                               ; preds = %90
  %100 = load ptr, ptr %7, align 8, !tbaa !9
  %101 = getelementptr inbounds nuw %struct.lzma_block, ptr %100, i32 0, i32 4
  %102 = load i64, ptr %101, align 8, !tbaa !13
  br label %103

103:                                              ; preds = %99, %98
  %104 = phi i64 [ 9223372036854775807, %98 ], [ %102, %99 ]
  %105 = load ptr, ptr %8, align 8, !tbaa !9
  %106 = getelementptr inbounds nuw %struct.lzma_block_coder, ptr %105, i32 0, i32 6
  store i64 %104, ptr %106, align 8, !tbaa !33
  %107 = load ptr, ptr %8, align 8, !tbaa !9
  %108 = getelementptr inbounds nuw %struct.lzma_block_coder, ptr %107, i32 0, i32 7
  store i64 0, ptr %108, align 8, !tbaa !34
  %109 = load ptr, ptr %8, align 8, !tbaa !9
  %110 = getelementptr inbounds nuw %struct.lzma_block_coder, ptr %109, i32 0, i32 8
  %111 = load ptr, ptr %7, align 8, !tbaa !9
  %112 = getelementptr inbounds nuw %struct.lzma_block, ptr %111, i32 0, i32 2
  %113 = load i32, ptr %112, align 8, !tbaa !31
  call void @lzma_check_init(ptr noundef %110, i32 noundef %113)
  %114 = load ptr, ptr %7, align 8, !tbaa !9
  %115 = getelementptr inbounds nuw %struct.lzma_block, ptr %114, i32 0, i32 0
  %116 = load i32, ptr %115, align 8, !tbaa !35
  %117 = icmp uge i32 %116, 1
  br i1 %117, label %118, label %123

118:                                              ; preds = %103
  %119 = load ptr, ptr %7, align 8, !tbaa !9
  %120 = getelementptr inbounds nuw %struct.lzma_block, ptr %119, i32 0, i32 22
  %121 = load i8, ptr %120, align 8, !tbaa !36
  %122 = zext i8 %121 to i32
  br label %124

123:                                              ; preds = %103
  br label %124

124:                                              ; preds = %123, %118
  %125 = phi i32 [ %122, %118 ], [ 0, %123 ]
  %126 = icmp ne i32 %125, 0
  %127 = load ptr, ptr %8, align 8, !tbaa !9
  %128 = getelementptr inbounds nuw %struct.lzma_block_coder, ptr %127, i32 0, i32 9
  %129 = zext i1 %126 to i8
  store i8 %129, ptr %128, align 8, !tbaa !37
  %130 = load ptr, ptr %8, align 8, !tbaa !9
  %131 = getelementptr inbounds nuw %struct.lzma_block_coder, ptr %130, i32 0, i32 1
  %132 = load ptr, ptr %6, align 8, !tbaa !9
  %133 = load ptr, ptr %7, align 8, !tbaa !9
  %134 = getelementptr inbounds nuw %struct.lzma_block, ptr %133, i32 0, i32 5
  %135 = load ptr, ptr %134, align 8, !tbaa !38
  %136 = call i32 @lzma_raw_decoder_init(ptr noundef %131, ptr noundef %132, ptr noundef %135)
  store i32 %136, ptr %4, align 4
  store i32 1, ptr %9, align 4
  br label %137

137:                                              ; preds = %124, %48
  call void @llvm.lifetime.end.p0(i64 8, ptr %8) #10
  br label %138

138:                                              ; preds = %137, %36
  %139 = load i32, ptr %4, align 4
  ret i32 %139
}