; Function Attrs: nounwind uwtable
define dso_local i32 @lzma_block_decoder_init(ptr noundef %0, ptr noundef %1, ptr noundef %2) #0 {
  %4 = getelementptr inbounds nuw i8, ptr %0, i64 16
  %5 = load i64, ptr %4, align 8, !tbaa !4
  %.not = icmp eq i64 %5, ptrtoint (ptr @lzma_block_decoder_init to i64)
  br i1 %.not, label %7, label %6

6:                                                ; preds = %3
  tail call void @lzma_next_end(ptr noundef nonnull %0, ptr noundef %1) #8
  br label %7

7:                                                ; preds = %6, %3
  store i64 ptrtoint (ptr @lzma_block_decoder_init to i64), ptr %4, align 8, !tbaa !4
  %8 = tail call i64 @lzma_block_unpadded_size(ptr noundef %2) #9
  %9 = icmp eq i64 %8, 0
  br i1 %9, label %61, label %10

10:                                               ; preds = %7
  %11 = getelementptr inbounds nuw i8, ptr %2, i64 24
  %12 = load i64, ptr %11, align 8, !tbaa !10
  %or.cond = icmp sgt i64 %12, -2
  br i1 %or.cond, label %13, label %61

13:                                               ; preds = %10
  %14 = load ptr, ptr %0, align 8, !tbaa !13
  %15 = icmp eq ptr %14, null
  br i1 %15, label %16, label %23

16:                                               ; preds = %13
  %17 = tail call ptr @lzma_alloc(i64 noundef 248, ptr noundef %1) #8
  %18 = icmp eq ptr %17, null
  br i1 %18, label %61, label %19

19:                                               ; preds = %16
  store ptr %17, ptr %0, align 8, !tbaa !13
  %20 = getelementptr inbounds nuw i8, ptr %0, i64 24
  store ptr @block_decode, ptr %20, align 8, !tbaa !14
  %21 = getelementptr inbounds nuw i8, ptr %0, i64 32
  store ptr @block_decoder_end, ptr %21, align 8, !tbaa !15
  %22 = getelementptr inbounds nuw i8, ptr %17, i64 8
  store ptr null, ptr %22, align 8, !tbaa !16
  %.sroa.2.0..sroa_idx = getelementptr inbounds nuw i8, ptr %17, i64 16
  store i64 -1, ptr %.sroa.2.0..sroa_idx, align 8, !tbaa !17
  %.sroa.3.0..sroa_idx = getelementptr inbounds nuw i8, ptr %17, i64 24
  tail call void @llvm.memset.p0.i64(ptr noundef nonnull align 8 dereferenceable(64) %.sroa.3.0..sroa_idx, i8 0, i64 64, i1 false)
  br label %23

23:                                               ; preds = %19, %13
  %.038 = phi ptr [ %17, %19 ], [ %14, %13 ]
  store i32 0, ptr %.038, align 8, !tbaa !18
  %24 = getelementptr inbounds nuw i8, ptr %.038, i64 88
  store ptr %2, ptr %24, align 8, !tbaa !22
  %25 = getelementptr inbounds nuw i8, ptr %.038, i64 96
  %26 = getelementptr inbounds nuw i8, ptr %2, i64 16
  tail call void @llvm.memset.p0.i64(ptr noundef nonnull align 8 dereferenceable(16) %25, i8 0, i64 16, i1 false)
  %27 = load i64, ptr %26, align 8, !tbaa !23
  %28 = icmp eq i64 %27, -1
  br i1 %28, label %29, label %._crit_edge

._crit_edge:                                      ; preds = %23
  %.phi.trans.insert = getelementptr inbounds nuw i8, ptr %2, i64 8
  %.pre = load i32, ptr %.phi.trans.insert, align 8, !tbaa !24
  br label %39

29:                                               ; preds = %23
  %30 = getelementptr inbounds nuw i8, ptr %2, i64 4
  %31 = load i32, ptr %30, align 4, !tbaa !25
  %32 = zext i32 %31 to i64
  %33 = getelementptr inbounds nuw i8, ptr %2, i64 8
  %34 = load i32, ptr %33, align 8, !tbaa !24
  %35 = tail call i32 @lzma_check_size(i32 noundef %34) #10
  %36 = zext i32 %35 to i64
  %37 = add nuw nsw i64 %32, %36
  %38 = sub nuw nsw i64 9223372036854775804, %37
  br label %39

39:                                               ; preds = %._crit_edge, %29
  %40 = phi i32 [ %34, %29 ], [ %.pre, %._crit_edge ]
  %41 = phi i64 [ %38, %29 ], [ %27, %._crit_edge ]
  %42 = getelementptr inbounds nuw i8, ptr %.038, i64 112
  store i64 %41, ptr %42, align 8, !tbaa !26
  %43 = load i64, ptr %11, align 8, !tbaa !10
  %44 = icmp eq i64 %43, -1
  %spec.select = select i1 %44, i64 9223372036854775807, i64 %43
  %45 = getelementptr inbounds nuw i8, ptr %.038, i64 120
  store i64 %spec.select, ptr %45, align 8, !tbaa !27
  %46 = getelementptr inbounds nuw i8, ptr %.038, i64 128
  store i64 0, ptr %46, align 8, !tbaa !28
  %47 = getelementptr inbounds nuw i8, ptr %.038, i64 136
  tail call void @lzma_check_init(ptr noundef nonnull %47, i32 noundef %40) #8
  %48 = load i32, ptr %2, align 8, !tbaa !29
  %.not44 = icmp eq i32 %48, 0
  br i1 %.not44, label %54, label %49

49:                                               ; preds = %39
  %50 = getelementptr inbounds nuw i8, ptr %2, i64 200
  %51 = load i8, ptr %50, align 8, !tbaa !30
  %52 = icmp ne i8 %51, 0
  %53 = zext i1 %52 to i8
  br label %54

54:                                               ; preds = %39, %49
  %55 = phi i8 [ %53, %49 ], [ 0, %39 ]
  %56 = getelementptr inbounds nuw i8, ptr %.038, i64 240
  store i8 %55, ptr %56, align 8, !tbaa !31
  %57 = getelementptr inbounds nuw i8, ptr %.038, i64 8
  %58 = getelementptr inbounds nuw i8, ptr %2, i64 32
  %59 = load ptr, ptr %58, align 8, !tbaa !32
  %60 = tail call i32 @lzma_raw_decoder_init(ptr noundef nonnull %57, ptr noundef %1, ptr noundef %59) #8
  br label %61

61:                                               ; preds = %54, %16, %7, %10
  %.0 = phi i32 [ 11, %10 ], [ 11, %7 ], [ %60, %54 ], [ 5, %16 ]
  ret i32 %.0
}